; Function Attrs: mustprogress uwtable
define void @_ZNK8QuantLib14FdmHestonFwdOp11apply_mixedERKNS_5ArrayE(ptr dead_on_unwind noalias writable sret(%"class.QuantLib::Array") align 8 %agg.result, ptr noundef nonnull align 8 dereferenceable(272) %this, ptr noundef nonnull align 8 dereferenceable(16) %u) unnamed_addr #6 align 2 personality ptr @__gxx_personality_v0 {
entry:
  %ref.tmp = alloca %"class.QuantLib::Array", align 8
  %leverageFct_ = getelementptr inbounds nuw i8, ptr %this, i64 224
  %0 = load ptr, ptr %leverageFct_, align 8, !tbaa !107
  %cmp.i.not = icmp eq ptr %0, null
  %correlation_3 = getelementptr inbounds nuw i8, ptr %this, i64 208
  %1 = load ptr, ptr %correlation_3, align 8, !tbaa !154
  %cmp.not.i5 = icmp eq ptr %1, null
  br i1 %cmp.i.not, label %if.else, label %if.then

if.then:                                          ; preds = %entry
  br i1 %cmp.not.i5, label %cond.false.i, label %_ZNK5boost10shared_ptrIN8QuantLib17NinePointLinearOpEEptEv.exit, !prof !34

cond.false.i:                                     ; preds = %if.then
  tail call void @_ZN5boost16assertion_failedEPKcS1_S1_l(ptr noundef nonnull @.str.14, ptr noundef nonnull @__PRETTY_FUNCTION__._ZNK5boost10shared_ptrIN8QuantLib17NinePointLinearOpEEptEv, ptr noundef nonnull @.str.15, i64 noundef 784)
  %.pre.i = load ptr, ptr %correlation_3, align 8, !tbaa !154
  br label %_ZNK5boost10shared_ptrIN8QuantLib17NinePointLinearOpEEptEv.exit

_ZNK5boost10shared_ptrIN8QuantLib17NinePointLinearOpEEptEv.exit: ; preds = %if.then, %cond.false.i
  %2 = phi ptr [ %1, %if.then ], [ %.pre.i, %cond.false.i ]
  call void @llvm.lifetime.start.p0(i64 16, ptr nonnull %ref.tmp) #24
  %L_ = getelementptr inbounds nuw i8, ptr %this, i64 160
  call void @_ZN8QuantLibmlERKNS_5ArrayES2_(ptr dead_on_unwind nonnull writable sret(%"class.QuantLib::Array") align 8 %ref.tmp, ptr noundef nonnull align 8 dereferenceable(16) %L_, ptr noundef nonnull align 8 dereferenceable(16) %u)
  %vtable = load ptr, ptr %2, align 8, !tbaa !7
  %vfn = getelementptr inbounds i8, ptr %vtable, i64 16
  %3 = load ptr, ptr %vfn, align 8
  invoke void %3(ptr dead_on_unwind writable sret(%"class.QuantLib::Array") align 8 %agg.result, ptr noundef nonnull align 8 dereferenceable(176) %2, ptr noundef nonnull align 8 dereferenceable(16) %ref.tmp)
          to label %invoke.cont unwind label %lpad

invoke.cont:                                      ; preds = %_ZNK5boost10shared_ptrIN8QuantLib17NinePointLinearOpEEptEv.exit
  %4 = load ptr, ptr %ref.tmp, align 8, !tbaa !75
  %cmp.not.i.i = icmp eq ptr %4, null
  br i1 %cmp.not.i.i, label %_ZN8QuantLib5ArrayD2Ev.exit, label %_ZNKSt14default_deleteIA_dEclIdEENSt9enable_ifIXsr14is_convertibleIPA_T_PS0_EE5valueEvE4typeEPS4_.exit.i.i

_ZNKSt14default_deleteIA_dEclIdEENSt9enable_ifIXsr14is_convertibleIPA_T_PS0_EE5valueEvE4typeEPS4_.exit.i.i: ; preds = %invoke.cont
  call void @_ZdaPv(ptr noundef nonnull %4) #26
  br label %_ZN8QuantLib5ArrayD2Ev.exit

_ZN8QuantLib5ArrayD2Ev.exit:                      ; preds = %invoke.cont, %_ZNKSt14default_deleteIA_dEclIdEENSt9enable_ifIXsr14is_convertibleIPA_T_PS0_EE5valueEvE4typeEPS4_.exit.i.i
  call void @llvm.lifetime.end.p0(i64 16, ptr nonnull %ref.tmp) #24
  br label %return

lpad:                                             ; preds = %_ZNK5boost10shared_ptrIN8QuantLib17NinePointLinearOpEEptEv.exit
  %5 = landingpad { ptr, i32 }
          cleanup
  %6 = load ptr, ptr %ref.tmp, align 8, !tbaa !75
  %cmp.not.i.i2 = icmp eq ptr %6, null
  br i1 %cmp.not.i.i2, label %_ZN8QuantLib5ArrayD2Ev.exit4, label %_ZNKSt14default_deleteIA_dEclIdEENSt9enable_ifIXsr14is_convertibleIPA_T_PS0_EE5valueEvE4typeEPS4_.exit.i.i3

_ZNKSt14default_deleteIA_dEclIdEENSt9enable_ifIXsr14is_convertibleIPA_T_PS0_EE5valueEvE4typeEPS4_.exit.i.i3: ; preds = %lpad
  call void @_ZdaPv(ptr noundef nonnull %6) #26
  br label %_ZN8QuantLib5ArrayD2Ev.exit4

_ZN8QuantLib5ArrayD2Ev.exit4:                     ; preds = %lpad, %_ZNKSt14default_deleteIA_dEclIdEENSt9enable_ifIXsr14is_convertibleIPA_T_PS0_EE5valueEvE4typeEPS4_.exit.i.i3
  call void @llvm.lifetime.end.p0(i64 16, ptr nonnull %ref.tmp) #24
  resume { ptr, i32 } %5

if.else:                                          ; preds = %entry
  br i1 %cmp.not.i5, label %cond.false.i6, label %_ZNK5boost10shared_ptrIN8QuantLib17NinePointLinearOpEEptEv.exit8, !prof !34

cond.false.i6:                                    ; preds = %if.else
  tail call void @_ZN5boost16assertion_failedEPKcS1_S1_l(ptr noundef nonnull @.str.14, ptr noundef nonnull @__PRETTY_FUNCTION__._ZNK5boost10shared_ptrIN8QuantLib17NinePointLinearOpEEptEv, ptr noundef nonnull @.str.15, i64 noundef 784)
  %.pre.i7 = load ptr, ptr %correlation_3, align 8, !tbaa !154
  br label %_ZNK5boost10shared_ptrIN8QuantLib17NinePointLinearOpEEptEv.exit8

_ZNK5boost10shared_ptrIN8QuantLib17NinePointLinearOpEEptEv.exit8: ; preds = %if.else, %cond.false.i6
  %7 = phi ptr [ %1, %if.else ], [ %.pre.i7, %cond.false.i6 ]
  %vtable5 = load ptr, ptr %7, align 8, !tbaa !7
  %vfn6 = getelementptr inbounds i8, ptr %vtable5, i64 16
  %8 = load ptr, ptr %vfn6, align 8
  tail call void %8(ptr dead_on_unwind writable sret(%"class.QuantLib::Array") align 8 %agg.result, ptr noundef nonnull align 8 dereferenceable(176) %7, ptr noundef nonnull align 8 dereferenceable(16) %u)
  br label %return

return:                                           ; preds = %_ZNK5boost10shared_ptrIN8QuantLib17NinePointLinearOpEEptEv.exit8, %_ZN8QuantLib5ArrayD2Ev.exit
  ret void
}